; Function Attrs: nounwind uwtable
define internal void @rvcon(ptr noundef initializes((144, 164), (208, 220), (224, 288), (440, 441)) %0) #1 {
  %2 = getelementptr inbounds nuw i8, ptr %0, i64 144
  %3 = getelementptr inbounds nuw i8, ptr %0, i64 440
  store i8 0, ptr %3, align 8, !tbaa !41
  tail call void @llvm.memset.p0.i64(ptr noundef nonnull align 8 dereferenceable(20) %2, i8 0, i64 20, i1 false)
  %4 = load i32, ptr @pmix_class_init_epoch, align 4, !tbaa !17
  %5 = load i32, ptr getelementptr inbounds nuw (i8, ptr @pmix_list_t_class, i64 32), align 8, !tbaa !18
  %.not = icmp eq i32 %4, %5
  br i1 %.not, label %7, label %6

6:                                                ; preds = %1
  tail call void @pmix_class_initialize(ptr noundef nonnull @pmix_list_t_class) #9
  br label %7

7:                                                ; preds = %6, %1
  %8 = getelementptr inbounds nuw i8, ptr %0, i64 168
  %9 = getelementptr inbounds nuw i8, ptr %0, i64 208
  store ptr @pmix_list_t_class, ptr %9, align 8, !tbaa !21
  %10 = getelementptr inbounds nuw i8, ptr %0, i64 216
  store i32 1, ptr %10, align 8, !tbaa !22
  %11 = getelementptr inbounds nuw i8, ptr %0, i64 224
  tail call void @llvm.memset.p0.i64(ptr noundef nonnull align 8 dereferenceable(64) %11, i8 0, i64 64, i1 false)
  %12 = load ptr, ptr getelementptr inbounds nuw (i8, ptr @pmix_list_t_class, i64 40), align 8, !tbaa !23
  %13 = load ptr, ptr %12, align 8, !tbaa !24
  %.not6.i = icmp eq ptr %13, null
  br i1 %.not6.i, label %pmix_obj_run_constructors.exit, label %.lr.ph.i

.lr.ph.i:                                         ; preds = %7, %.lr.ph.i
  %14 = phi ptr [ %16, %.lr.ph.i ], [ %13, %7 ]
  %.07.i = phi ptr [ %15, %.lr.ph.i ], [ %12, %7 ]
  tail call void %14(ptr noundef nonnull %8) #9
  %15 = getelementptr inbounds nuw i8, ptr %.07.i, i64 8
  %16 = load ptr, ptr %15, align 8, !tbaa !24
  %.not.i = icmp eq ptr %16, null
  br i1 %.not.i, label %pmix_obj_run_constructors.exit, label %.lr.ph.i, !llvm.loop !25

pmix_obj_run_constructors.exit:                   ; preds = %.lr.ph.i, %7
  ret void
}